target datalayout = "e-m:e-p270:32:32-p271:32:32-p272:64:64-i64:64-i128:128-f80:128-n8:16:32:64-S128"
target triple = "x86_64-pc-linux-gnu"

%struct.strbuf = type { i64, i64, ptr }

@.str.52 = private unnamed_addr constant [6 x i8] c"%s:%s\00", align 1
@.str.59 = private unnamed_addr constant [5 x i8] c"data\00", align 1
@__const.fn_data_fl.buf_payload = private unnamed_addr constant %struct.strbuf { i64 0, i64 0, ptr @strbuf_slopbuf }, align 8

; Function Attrs: nounwind uwtable
define internal void @fn_data_fl(ptr noundef %0, i32 noundef %1, i64 noundef %2, i64 noundef %3, ptr noundef %4, ptr noundef %5, ptr noundef %6, ptr noundef %7) #0 {
  %9 = alloca ptr, align 8
  %10 = alloca i32, align 4
  %11 = alloca i64, align 8
  %12 = alloca i64, align 8
  %13 = alloca ptr, align 8
  %14 = alloca ptr, align 8
  %15 = alloca ptr, align 8
  %16 = alloca ptr, align 8
  %17 = alloca ptr, align 8
  %18 = alloca %struct.strbuf, align 8
  store ptr %0, ptr %9, align 8, !tbaa !8
  store i32 %1, ptr %10, align 4, !tbaa !4
  store i64 %2, ptr %11, align 8, !tbaa !12
  store i64 %3, ptr %12, align 8, !tbaa !12
  store ptr %4, ptr %13, align 8, !tbaa !8
  store ptr %5, ptr %14, align 8, !tbaa !34
  store ptr %6, ptr %15, align 8, !tbaa !8
  store ptr %7, ptr %16, align 8, !tbaa !8
  call void @llvm.lifetime.start.p0(i64 8, ptr %17) #9
  store ptr @.str.59, ptr %17, align 8, !tbaa !8
  call void @llvm.lifetime.start.p0(i64 24, ptr %18) #9
  call void @llvm.memcpy.p0.p0.i64(ptr align 8 %18, ptr align 8 @__const.fn_data_fl.buf_payload, i64 24, i1 false)
  %19 = load ptr, ptr %15, align 8, !tbaa !8
  %20 = load ptr, ptr %16, align 8, !tbaa !8
  call void (ptr, ptr, ...) @strbuf_addf(ptr noundef %18, ptr noundef @.str.52, ptr noundef %19, ptr noundef %20)
  %21 = load ptr, ptr %9, align 8, !tbaa !8
  %22 = load i32, ptr %10, align 4, !tbaa !4
  %23 = load ptr, ptr %17, align 8, !tbaa !8
  %24 = load ptr, ptr %14, align 8, !tbaa !34
  %25 = load ptr, ptr %13, align 8, !tbaa !8
  call void @perf_io_write_fl(ptr noundef %21, i32 noundef %22, ptr noundef %23, ptr noundef %24, ptr noundef %11, ptr noundef %12, ptr noundef %25, ptr noundef %18)
  call void @strbuf_release(ptr noundef %18)
  call void @llvm.lifetime.end.p0(i64 24, ptr %18) #9
  call void @llvm.lifetime.end.p0(i64 8, ptr %17) #9
  ret void
}