; Function Attrs: nounwind uwtable
define internal void @fn_data_fl(ptr noundef %0, i32 noundef %1, i64 noundef %2, i64 noundef %3, ptr noundef %4, ptr noundef %5, ptr noundef %6, ptr noundef %7) #0 {
  %9 = alloca i64, align 8
  %10 = alloca i64, align 8
  %11 = alloca %struct.strbuf, align 8
  store i64 %2, ptr %9, align 8, !tbaa !9
  store i64 %3, ptr %10, align 8, !tbaa !9
  call void @llvm.lifetime.start.p0(i64 24, ptr nonnull %11) #7
  call void @llvm.memcpy.p0.p0.i64(ptr noundef nonnull align 8 dereferenceable(24) %11, ptr noundef nonnull align 8 dereferenceable(24) @__const.fn_counter.buf_payload, i64 24, i1 false)
  call void (ptr, ptr, ...) @strbuf_addf(ptr noundef nonnull %11, ptr noundef nonnull @.str.52, ptr noundef %6, ptr noundef %7) #7
  call fastcc void @perf_io_write_fl(ptr noundef %0, i32 noundef %1, ptr noundef nonnull @.str.59, ptr noundef %5, ptr noundef nonnull %9, ptr noundef nonnull %10, ptr noundef %4, ptr noundef %11)
  call void @strbuf_release(ptr noundef nonnull %11) #7
  call void @llvm.lifetime.end.p0(i64 24, ptr nonnull %11) #7
  ret void
}